; Function Attrs: mustprogress nounwind uwtable
define hidden noundef ptr @_ZNK14ResourceBitMap10reallocateEPmmm(ptr nocapture noundef nonnull readnone align 8 dereferenceable(16) %0, ptr noundef readonly %1, i64 noundef %2, i64 noundef %3) local_unnamed_addr #0 align 2 {
  %5 = shl i64 %3, 3
  %6 = tail call noundef ptr @_Z23resource_allocate_bytesmN17AllocFailStrategy13AllocFailEnumE(i64 noundef %5, i32 noundef 0) #10
  %.not.i = icmp eq ptr %1, null
  br i1 %.not.i, label %_ZL17pseudo_reallocateI14ResourceBitMapEPmRKT_S1_mm.exit, label %.split11.i

.split11.i:                                       ; preds = %4
  %7 = tail call noundef i64 @llvm.umin.i64(i64 %2, i64 %3)
  switch i64 %7, label %38 [
    i64 8, label %8
    i64 7, label %12
    i64 6, label %16
    i64 5, label %20
    i64 4, label %24
    i64 3, label %28
    i64 2, label %32
    i64 1, label %36
    i64 0, label %_ZL17pseudo_reallocateI14ResourceBitMapEPmRKT_S1_mm.exit
  ]

8:                                                ; preds = %.split11.i
  %9 = getelementptr inbounds i8, ptr %1, i64 56
  %10 = load ptr, ptr %9, align 8
  %11 = getelementptr inbounds i8, ptr %6, i64 56
  store ptr %10, ptr %11, align 8
  br label %12

12:                                               ; preds = %8, %.split11.i
  %13 = getelementptr inbounds i8, ptr %1, i64 48
  %14 = load ptr, ptr %13, align 8
  %15 = getelementptr inbounds i8, ptr %6, i64 48
  store ptr %14, ptr %15, align 8
  br label %16

16:                                               ; preds = %12, %.split11.i
  %17 = getelementptr inbounds i8, ptr %1, i64 40
  %18 = load ptr, ptr %17, align 8
  %19 = getelementptr inbounds i8, ptr %6, i64 40
  store ptr %18, ptr %19, align 8
  br label %20

20:                                               ; preds = %16, %.split11.i
  %21 = getelementptr inbounds i8, ptr %1, i64 32
  %22 = load ptr, ptr %21, align 8
  %23 = getelementptr inbounds i8, ptr %6, i64 32
  store ptr %22, ptr %23, align 8
  br label %24

24:                                               ; preds = %20, %.split11.i
  %25 = getelementptr inbounds i8, ptr %1, i64 24
  %26 = load ptr, ptr %25, align 8
  %27 = getelementptr inbounds i8, ptr %6, i64 24
  store ptr %26, ptr %27, align 8
  br label %28

28:                                               ; preds = %24, %.split11.i
  %29 = getelementptr inbounds i8, ptr %1, i64 16
  %30 = load ptr, ptr %29, align 8
  %31 = getelementptr inbounds i8, ptr %6, i64 16
  store ptr %30, ptr %31, align 8
  br label %32

32:                                               ; preds = %28, %.split11.i
  %33 = getelementptr inbounds i8, ptr %1, i64 8
  %34 = load ptr, ptr %33, align 8
  %35 = getelementptr inbounds i8, ptr %6, i64 8
  store ptr %34, ptr %35, align 8
  br label %36

36:                                               ; preds = %32, %.split11.i
  %37 = load ptr, ptr %1, align 8
  store ptr %37, ptr %6, align 8
  br label %_ZL17pseudo_reallocateI14ResourceBitMapEPmRKT_S1_mm.exit

38:                                               ; preds = %.split11.i
  %39 = shl i64 %7, 3
  tail call void @llvm.memcpy.p0.p0.i64(ptr align 8 %6, ptr nonnull readonly align 8 %1, i64 %39, i1 false)
  br label %_ZL17pseudo_reallocateI14ResourceBitMapEPmRKT_S1_mm.exit

_ZL17pseudo_reallocateI14ResourceBitMapEPmRKT_S1_mm.exit: ; preds = %4, %.split11.i, %36, %38
  ret ptr %6
}